; Function Attrs: mustprogress nofree norecurse nosync nounwind willreturn memory(read, inaccessiblemem: none) uwtable
define range(i32 0, 2) i32 @If_ManImproveNodeWillGrow(ptr noundef readnone captures(none) %0, ptr noundef readonly captures(none) %1) local_unnamed_addr #5 {
  %3 = getelementptr i8, ptr %1, i64 24
  %.val = load ptr, ptr %3, align 8, !tbaa !45
  %4 = load i32, ptr %.val, align 8
  %5 = and i32 %4, 256
  %.not = icmp eq i32 %5, 0
  br i1 %.not, label %6, label %11

6:                                                ; preds = %2
  %7 = getelementptr i8, ptr %1, i64 32
  %.val5 = load ptr, ptr %7, align 8, !tbaa !46
  %8 = load i32, ptr %.val5, align 8
  %9 = lshr i32 %8, 8
  %.lobit = and i32 %9, 1
  %10 = xor i32 %.lobit, 1
  br label %11

11:                                               ; preds = %6, %2
  %12 = phi i32 [ 0, %2 ], [ %10, %6 ]
  ret i32 %12
}